target datalayout = "e-m:e-p270:32:32-p271:32:32-p272:64:64-i64:64-i128:128-f80:128-n8:16:32:64-S128"
target triple = "x86_64-pc-linux-gnu"

%"class.icu_77::GregorianCalendar" = type <{ %"class.icu_77::Calendar", double, i32, [4 x i8], double, i32, i8, i8, [2 x i8] }>
%"class.icu_77::Calendar" = type <{ %"class.icu_77::UObject", [24 x i32], [24 x i8], i8, [7 x i8], double, ptr, i8, i16, i8, i32, i32, i32, i8, i8, i16, [4 x i8], ptr, ptr }>
%"class.icu_77::UObject" = type { ptr }

; Function Attrs: mustprogress uwtable
define void @_ZN6icu_7717GregorianCalendarC2EPNS_8TimeZoneERKNS_6LocaleER10UErrorCode(ptr noundef nonnull align 8 dereferenceable(222) %0, ptr noundef %1, ptr noundef nonnull align 8 dereferenceable(217) %2, ptr noundef nonnull align 4 dereferenceable(4) %3) unnamed_addr #1 align 2 personality ptr @__gxx_personality_v0 {
  %5 = alloca ptr, align 8
  %6 = alloca ptr, align 8
  %7 = alloca ptr, align 8
  %8 = alloca ptr, align 8
  %9 = alloca ptr, align 8
  %10 = alloca i32, align 4
  store ptr %0, ptr %5, align 8, !tbaa !3
  store ptr %1, ptr %6, align 8, !tbaa !28
  store ptr %2, ptr %7, align 8, !tbaa !29
  store ptr %3, ptr %8, align 8, !tbaa !8
  %11 = load ptr, ptr %5, align 8
  %12 = load ptr, ptr %6, align 8, !tbaa !28
  %13 = load ptr, ptr %7, align 8, !tbaa !29
  %14 = load ptr, ptr %8, align 8, !tbaa !8
  call void @_ZN6icu_778CalendarC2EPNS_8TimeZoneERKNS_6LocaleER10UErrorCode(ptr noundef nonnull align 8 dereferenceable(192) %11, ptr noundef %12, ptr noundef nonnull align 8 dereferenceable(217) %13, ptr noundef nonnull align 4 dereferenceable(4) %14)
  store ptr getelementptr inbounds inrange(-16, 480) ({ [62 x ptr] }, ptr @_ZTVN6icu_7717GregorianCalendarE, i32 0, i32 0, i32 2), ptr %11, align 8, !tbaa !9
  %15 = getelementptr inbounds nuw %"class.icu_77::GregorianCalendar", ptr %11, i32 0, i32 1
  store double 0xC2A63A0D36A80000, ptr %15, align 8, !tbaa !11
  %16 = getelementptr inbounds nuw %"class.icu_77::GregorianCalendar", ptr %11, i32 0, i32 2
  store i32 2299161, ptr %16, align 8, !tbaa !23
  %17 = getelementptr inbounds nuw %"class.icu_77::GregorianCalendar", ptr %11, i32 0, i32 4
  %18 = getelementptr inbounds nuw %"class.icu_77::GregorianCalendar", ptr %11, i32 0, i32 1
  %19 = load double, ptr %18, align 8, !tbaa !11
  store double %19, ptr %17, align 8, !tbaa !24
  %20 = getelementptr inbounds nuw %"class.icu_77::GregorianCalendar", ptr %11, i32 0, i32 5
  store i32 1582, ptr %20, align 8, !tbaa !25
  %21 = getelementptr inbounds nuw %"class.icu_77::GregorianCalendar", ptr %11, i32 0, i32 6
  store i8 1, ptr %21, align 4, !tbaa !26
  %22 = getelementptr inbounds nuw %"class.icu_77::GregorianCalendar", ptr %11, i32 0, i32 7
  store i8 0, ptr %22, align 1, !tbaa !27
  %23 = invoke noundef double @_ZN6icu_778Calendar6getNowEv()
          to label %24 unwind label %27

24:                                               ; preds = %4
  %25 = load ptr, ptr %8, align 8, !tbaa !8
  invoke void @_ZN6icu_778Calendar15setTimeInMillisEdR10UErrorCode(ptr noundef nonnull align 8 dereferenceable(192) %11, double noundef %23, ptr noundef nonnull align 4 dereferenceable(4) %25)
          to label %26 unwind label %27

26:                                               ; preds = %24
  ret void

27:                                               ; preds = %24, %4
  %28 = landingpad { ptr, i32 }
          cleanup
  %29 = extractvalue { ptr, i32 } %28, 0
  store ptr %29, ptr %9, align 8
  %30 = extractvalue { ptr, i32 } %28, 1
  store i32 %30, ptr %10, align 4
  call void @_ZN6icu_778CalendarD2Ev(ptr noundef nonnull align 8 dereferenceable(192) %11) #10
  br label %31

31:                                               ; preds = %27
  %32 = load ptr, ptr %9, align 8
  %33 = load i32, ptr %10, align 4
  %34 = insertvalue { ptr, i32 } poison, ptr %32, 0
  %35 = insertvalue { ptr, i32 } %34, i32 %33, 1
  resume { ptr, i32 } %35
}

; Function Attrs: mustprogress uwtable
define void @_ZN6icu_7717GregorianCalendarC2EPNS_8TimeZoneER10UErrorCode(ptr noundef nonnull align 8 dereferenceable(222) %0, ptr noundef %1, ptr noundef nonnull align 4 dereferenceable(4) %2) unnamed_addr #1 align 2 {
  %4 = alloca ptr, align 8
  %5 = alloca ptr, align 8
  %6 = alloca ptr, align 8
  store ptr %0, ptr %4, align 8, !tbaa !3
  store ptr %1, ptr %5, align 8, !tbaa !28
  store ptr %2, ptr %6, align 8, !tbaa !8
  %7 = load ptr, ptr %4, align 8
  %8 = load ptr, ptr %5, align 8, !tbaa !28
  %9 = call noundef nonnull align 8 dereferenceable(217) ptr @_ZN6icu_776Locale10getDefaultEv()
  %10 = load ptr, ptr %6, align 8, !tbaa !8
  call void @_ZN6icu_7717GregorianCalendarC2EPNS_8TimeZoneERKNS_6LocaleER10UErrorCode(ptr noundef nonnull align 8 dereferenceable(222) %7, ptr noundef %8, ptr noundef nonnull align 8 dereferenceable(217) %9, ptr noundef nonnull align 4 dereferenceable(4) %10)
  ret void
}